; Function Attrs: nounwind uwtable
define internal range(i32 0, 2) i32 @hf_set_default_stream_mode(ptr noundef readonly captures(none) %0) #1 {
  %2 = load ptr, ptr %0, align 8, !tbaa !107
  %3 = getelementptr inbounds nuw i8, ptr %2, i64 112
  %4 = load ptr, ptr %3, align 8, !tbaa !100
  %5 = getelementptr inbounds nuw i8, ptr %2, i64 104
  %6 = load ptr, ptr %5, align 8, !tbaa !95
  %7 = ptrtoint ptr %4 to i64
  %8 = ptrtoint ptr %6 to i64
  %9 = sub i64 %7, %8
  %10 = tail call i32 @test_size_t_ge(ptr noundef nonnull @.str.42, i32 noundef 629, ptr noundef nonnull @.str.55, ptr noundef nonnull @.str.56, i64 noundef %9, i64 noundef 8) #12
  %.not.i = icmp eq i32 %10, 0
  br i1 %.not.i, label %TERP_stk_pop.exit, label %11

11:                                               ; preds = %1
  %12 = load ptr, ptr %5, align 8, !tbaa !95
  %13 = load i64, ptr %12, align 1
  %14 = getelementptr inbounds nuw i8, ptr %12, i64 8
  store ptr %14, ptr %5, align 8, !tbaa !95
  %15 = trunc i64 %13 to i32
  br label %TERP_stk_pop.exit

TERP_stk_pop.exit:                                ; preds = %1, %11
  %.07 = phi i32 [ 0, %1 ], [ %15, %11 ]
  %.0.i = phi i32 [ 0, %1 ], [ 1, %11 ]
  %16 = tail call i32 @test_true(ptr noundef nonnull @.str.44, i32 noundef 437, ptr noundef nonnull @.str.170, i32 noundef %.0.i) #12
  %.not = icmp eq i32 %16, 0
  br i1 %.not, label %30, label %17

17:                                               ; preds = %TERP_stk_pop.exit
  %18 = tail call i32 @test_size_t_lt(ptr noundef nonnull @.str.74, i32 noundef 670, ptr noundef nonnull @.str.93, ptr noundef nonnull @.str.86, i64 noundef 0, i64 noundef 8) #12
  %.not.i4 = icmp eq i32 %18, 0
  br i1 %.not.i4, label %expect_slot_ssl.exit, label %19

19:                                               ; preds = %17
  %20 = tail call ptr @CRYPTO_THREAD_get_local(ptr noundef nonnull @radix_thread) #12
  %21 = getelementptr inbounds nuw i8, ptr %20, i64 104
  %22 = load ptr, ptr %21, align 8, !tbaa !49
  %23 = tail call i32 @test_ptr(ptr noundef nonnull @.str.74, i32 noundef 671, ptr noundef nonnull @.str.94, ptr noundef %22) #12
  %.not3.i = icmp ne i32 %23, 0
  %spec.select.i = zext i1 %.not3.i to i32
  br label %expect_slot_ssl.exit

expect_slot_ssl.exit:                             ; preds = %17, %19
  %.06 = phi ptr [ null, %17 ], [ %22, %19 ]
  %.0.i5 = phi i32 [ 0, %17 ], [ %spec.select.i, %19 ]
  %24 = tail call i32 @test_true(ptr noundef nonnull @.str.44, i32 noundef 438, ptr noundef nonnull @.str.95, i32 noundef %.0.i5) #12
  %.not2 = icmp eq i32 %24, 0
  br i1 %.not2, label %30, label %25

25:                                               ; preds = %expect_slot_ssl.exit
  %26 = tail call i32 @SSL_set_default_stream_mode(ptr noundef %.06, i32 noundef %.07) #12
  %27 = icmp ne i32 %26, 0
  %28 = zext i1 %27 to i32
  %29 = tail call i32 @test_true(ptr noundef nonnull @.str.44, i32 noundef 440, ptr noundef nonnull @.str.171, i32 noundef %28) #12
  %.not3 = icmp ne i32 %29, 0
  %spec.select = zext i1 %.not3 to i32
  br label %30

30:                                               ; preds = %25, %expect_slot_ssl.exit, %TERP_stk_pop.exit
  %.0 = phi i32 [ 0, %expect_slot_ssl.exit ], [ 0, %TERP_stk_pop.exit ], [ %spec.select, %25 ]
  ret i32 %.0
}